; Function Attrs: nounwind uwtable
define void @Pdr_ManSolverAddClause(ptr noundef %0, i32 noundef %1, ptr noundef readonly captures(none) %2) local_unnamed_addr #0 {
  %4 = getelementptr i8, ptr %0, i64 104
  %.val = load ptr, ptr %4, align 8
  %5 = getelementptr i8, ptr %.val, i64 8
  %.val.val = load ptr, ptr %5, align 8
  %6 = sext i32 %1 to i64
  %7 = getelementptr inbounds ptr, ptr %.val.val, i64 %6
  %8 = load ptr, ptr %7, align 8
  %9 = tail call ptr @Pdr_ManCubeToLits(ptr noundef %0, i32 noundef %1, ptr noundef %2, i32 noundef 1, i32 noundef 0)
  %10 = getelementptr i8, ptr %9, i64 8
  %.val9 = load ptr, ptr %10, align 8
  %11 = getelementptr i8, ptr %9, i64 4
  %.val11 = load i32, ptr %11, align 4
  %12 = sext i32 %.val11 to i64
  %13 = getelementptr inbounds i32, ptr %.val9, i64 %12
  %14 = tail call i32 @sat_solver_addclause(ptr noundef %8, ptr noundef %.val9, ptr noundef %13) #8
  %15 = getelementptr inbounds nuw i8, ptr %8, i64 12
  %16 = load i32, ptr %15, align 4
  %17 = getelementptr inbounds nuw i8, ptr %8, i64 8
  %18 = load i32, ptr %17, align 8
  %.not.i = icmp eq i32 %16, %18
  br i1 %.not.i, label %sat_solver_compress.exit, label %19

19:                                               ; preds = %3
  %20 = tail call i32 @sat_solver_simplify(ptr noundef nonnull %8) #8
  br label %sat_solver_compress.exit

sat_solver_compress.exit:                         ; preds = %3, %19
  ret void
}